; Function Attrs: null_pointer_is_valid sspstrong uwtable
define hidden i32 @dissect_doserror(ptr noundef %0, i32 noundef %1, ptr noundef %2, ptr noundef %3, ptr noundef %4, ptr noundef %5, i32 noundef %6, ptr noundef writeonly captures(address_is_null) %7) local_unnamed_addr #0 {
  %9 = alloca i32, align 4
  call void @llvm.lifetime.start.p0(i64 4, ptr nonnull %9) #9
  %10 = call i32 @dissect_ndr_uint32(ptr noundef %0, i32 noundef %1, ptr noundef %2, ptr noundef %3, ptr noundef %4, ptr noundef %5, i32 noundef %6, ptr noundef nonnull %9)
  %11 = load i32, ptr %9, align 4
  %.not = icmp eq i32 %11, 0
  br i1 %.not, label %16, label %12

12:                                               ; preds = %8
  %13 = getelementptr inbounds nuw i8, ptr %2, i64 8
  %14 = load ptr, ptr %13, align 8
  %15 = call ptr @val_to_str_ext(i32 noundef %11, ptr noundef nonnull @DOS_errors_ext, ptr noundef nonnull @.str.11)
  call void (ptr, i32, ptr, ...) @col_append_fstr(ptr noundef %14, i32 noundef 25, ptr noundef nonnull @.str.10, ptr noundef %15)
  br label %16

16:                                               ; preds = %12, %8
  %.not11 = icmp eq ptr %7, null
  br i1 %.not11, label %19, label %17

17:                                               ; preds = %16
  %18 = load i32, ptr %9, align 4
  store i32 %18, ptr %7, align 4
  br label %19

19:                                               ; preds = %17, %16
  call void @llvm.lifetime.end.p0(i64 4, ptr nonnull %9) #9
  ret i32 %10
}